target datalayout = "e-m:e-p270:32:32-p271:32:32-p272:64:64-i64:64-i128:128-f80:128-n8:16:32:64-S128"
target triple = "x86_64-pc-linux-gnu"

%"struct.std::array" = type { [2 x i64] }
%"struct.rocksdb::clock_cache::ClockHandleBasicData" = type { ptr, ptr, %"struct.std::array", i64 }
%"struct.rocksdb::Cache::CacheItemHelper" = type { ptr, ptr, ptr, ptr, i32, ptr }

; Function Attrs: mustprogress uwtable
define void @_ZNK7rocksdb11clock_cache20ClockHandleBasicData8FreeDataEPNS_15MemoryAllocatorE(ptr noundef nonnull align 8 dereferenceable(40) %0, ptr noundef %1) #0 align 2 {
  %3 = alloca ptr, align 8
  %4 = alloca ptr, align 8
  store ptr %0, ptr %3, align 8, !tbaa !63
  store ptr %1, ptr %4, align 8, !tbaa !15
  %5 = load ptr, ptr %3, align 8
  %6 = getelementptr inbounds nuw %"struct.rocksdb::clock_cache::ClockHandleBasicData", ptr %5, i32 0, i32 1
  %7 = load ptr, ptr %6, align 8, !tbaa !59
  %8 = getelementptr inbounds nuw %"struct.rocksdb::Cache::CacheItemHelper", ptr %7, i32 0, i32 0
  %9 = load ptr, ptr %8, align 8, !tbaa !136
  %10 = icmp ne ptr %9, null
  br i1 %10, label %11, label %19

11:                                               ; preds = %2
  %12 = getelementptr inbounds nuw %"struct.rocksdb::clock_cache::ClockHandleBasicData", ptr %5, i32 0, i32 1
  %13 = load ptr, ptr %12, align 8, !tbaa !59
  %14 = getelementptr inbounds nuw %"struct.rocksdb::Cache::CacheItemHelper", ptr %13, i32 0, i32 0
  %15 = load ptr, ptr %14, align 8, !tbaa !136
  %16 = getelementptr inbounds nuw %"struct.rocksdb::clock_cache::ClockHandleBasicData", ptr %5, i32 0, i32 0
  %17 = load ptr, ptr %16, align 8, !tbaa !56
  %18 = load ptr, ptr %4, align 8, !tbaa !15
  call void %15(ptr noundef %17, ptr noundef %18)
  br label %19

19:                                               ; preds = %11, %2
  ret void
}