; Function Attrs: mustprogress uwtable
define void @_ZNK7rocksdb11clock_cache20ClockHandleBasicData8FreeDataEPNS_15MemoryAllocatorE(ptr noundef nonnull readonly align 8 captures(none) dereferenceable(40) %0, ptr noundef %1) local_unnamed_addr #0 align 2 {
  %3 = getelementptr inbounds nuw i8, ptr %0, i64 8
  %4 = load ptr, ptr %3, align 8, !tbaa !34
  %5 = load ptr, ptr %4, align 8, !tbaa !73
  %.not = icmp eq ptr %5, null
  br i1 %.not, label %8, label %6

6:                                                ; preds = %2
  %7 = load ptr, ptr %0, align 8, !tbaa !30
  tail call void %5(ptr noundef %7, ptr noundef %1)
  br label %8

8:                                                ; preds = %6, %2
  ret void
}